target datalayout = "e-m:e-p270:32:32-p271:32:32-p272:64:64-i64:64-i128:128-f80:128-n8:16:32:64-S128"
target triple = "x86_64-pc-linux-gnu"

%struct.pg_compress_specification = type { i32, i32, i32, i32, i8, ptr }
%struct._archiveHandle = type { %struct.Archive, i32, ptr, ptr, i64, i64, i32, %struct.sqlparseInfo, i64, i32, ptr, i64, i64, i64, ptr, ptr, ptr, ptr, ptr, ptr, ptr, ptr, ptr, ptr, ptr, ptr, ptr, ptr, ptr, ptr, ptr, ptr, ptr, ptr, ptr, ptr, ptr, ptr, ptr, ptr, ptr, ptr, ptr, ptr, i32, i32, i8, i32, i8, i32, ptr, ptr, ptr, ptr, i32, i32, ptr, ptr, ptr, %struct.pg_compress_specification, i8, i32, i32, ptr, ptr, ptr, ptr, ptr, i32, ptr, i64, i64, i32, i32, i32, i32, ptr, ptr }
%struct.Archive = type { ptr, ptr, i32, ptr, i32, i8, i32, i32, i32, ptr, i32, i8, ptr, ptr, i8, i32, ptr }
%struct.sqlparseInfo = type { i32, i8, ptr }
%struct._tocEntry = type { ptr, ptr, %struct.CatalogId, i32, i32, i8, ptr, ptr, ptr, ptr, i8, ptr, ptr, ptr, ptr, ptr, ptr, i32, ptr, ptr, ptr, i64, i32, i8, ptr, ptr, i32, ptr, i32, ptr, i32 }
%struct.CatalogId = type { i32, i32 }
%struct.__va_list_tag = type { i32, i32, ptr, ptr }

@.str.78 = private unnamed_addr constant [20 x i8] c"while INITIALIZING:\00", align 1
@.str.79 = private unnamed_addr constant [22 x i8] c"while PROCESSING TOC:\00", align 1
@.str.80 = private unnamed_addr constant [18 x i8] c"while FINALIZING:\00", align 1
@.str.81 = private unnamed_addr constant [34 x i8] c"from TOC entry %d; %u %u %s %s %s\00", align 1
@.str.82 = private unnamed_addr constant [10 x i8] c"(no desc)\00", align 1
@.str.83 = private unnamed_addr constant [9 x i8] c"(no tag)\00", align 1
@.str.84 = private unnamed_addr constant [11 x i8] c"(no owner)\00", align 1

; Function Attrs: nounwind uwtable
define dso_local void @warn_or_exit_horribly(ptr noundef %0, ptr noundef %1, ...) #0 {
  %3 = alloca ptr, align 8
  %4 = alloca ptr, align 8
  %5 = alloca [1 x %struct.__va_list_tag], align 16
  store ptr %0, ptr %3, align 8
  store ptr %1, ptr %4, align 8
  call void @llvm.lifetime.start.p0(i64 24, ptr %5) #11
  %6 = load ptr, ptr %3, align 8
  %7 = getelementptr inbounds nuw %struct._archiveHandle, ptr %6, i32 0, i32 73
  %8 = load i32, ptr %7, align 4
  switch i32 %8, label %39 [
    i32 0, label %39
    i32 1, label %9
    i32 2, label %19
    i32 3, label %29
  ]

9:                                                ; preds = %2
  %10 = load ptr, ptr %3, align 8
  %11 = getelementptr inbounds nuw %struct._archiveHandle, ptr %10, i32 0, i32 73
  %12 = load i32, ptr %11, align 4
  %13 = load ptr, ptr %3, align 8
  %14 = getelementptr inbounds nuw %struct._archiveHandle, ptr %13, i32 0, i32 74
  %15 = load i32, ptr %14, align 8
  %16 = icmp ne i32 %12, %15
  br i1 %16, label %17, label %18

17:                                               ; preds = %9
  call void (i32, i32, ptr, ...) @pg_log_generic(i32 noundef 2, i32 noundef 0, ptr noundef @.str.78)
  br label %18

18:                                               ; preds = %17, %9
  br label %39

19:                                               ; preds = %2
  %20 = load ptr, ptr %3, align 8
  %21 = getelementptr inbounds nuw %struct._archiveHandle, ptr %20, i32 0, i32 73
  %22 = load i32, ptr %21, align 4
  %23 = load ptr, ptr %3, align 8
  %24 = getelementptr inbounds nuw %struct._archiveHandle, ptr %23, i32 0, i32 74
  %25 = load i32, ptr %24, align 8
  %26 = icmp ne i32 %22, %25
  br i1 %26, label %27, label %28

27:                                               ; preds = %19
  call void (i32, i32, ptr, ...) @pg_log_generic(i32 noundef 2, i32 noundef 0, ptr noundef @.str.79)
  br label %28

28:                                               ; preds = %27, %19
  br label %39

29:                                               ; preds = %2
  %30 = load ptr, ptr %3, align 8
  %31 = getelementptr inbounds nuw %struct._archiveHandle, ptr %30, i32 0, i32 73
  %32 = load i32, ptr %31, align 4
  %33 = load ptr, ptr %3, align 8
  %34 = getelementptr inbounds nuw %struct._archiveHandle, ptr %33, i32 0, i32 74
  %35 = load i32, ptr %34, align 8
  %36 = icmp ne i32 %32, %35
  br i1 %36, label %37, label %38

37:                                               ; preds = %29
  call void (i32, i32, ptr, ...) @pg_log_generic(i32 noundef 2, i32 noundef 0, ptr noundef @.str.80)
  br label %38

38:                                               ; preds = %37, %29
  br label %39

39:                                               ; preds = %2, %38, %28, %18, %2
  %40 = load ptr, ptr %3, align 8
  %41 = getelementptr inbounds nuw %struct._archiveHandle, ptr %40, i32 0, i32 76
  %42 = load ptr, ptr %41, align 8
  %43 = icmp ne ptr %42, null
  br i1 %43, label %44, label %115

44:                                               ; preds = %39
  %45 = load ptr, ptr %3, align 8
  %46 = getelementptr inbounds nuw %struct._archiveHandle, ptr %45, i32 0, i32 76
  %47 = load ptr, ptr %46, align 8
  %48 = load ptr, ptr %3, align 8
  %49 = getelementptr inbounds nuw %struct._archiveHandle, ptr %48, i32 0, i32 77
  %50 = load ptr, ptr %49, align 8
  %51 = icmp ne ptr %47, %50
  br i1 %51, label %52, label %115

52:                                               ; preds = %44
  %53 = load ptr, ptr %3, align 8
  %54 = getelementptr inbounds nuw %struct._archiveHandle, ptr %53, i32 0, i32 76
  %55 = load ptr, ptr %54, align 8
  %56 = getelementptr inbounds nuw %struct._tocEntry, ptr %55, i32 0, i32 3
  %57 = load i32, ptr %56, align 8
  %58 = load ptr, ptr %3, align 8
  %59 = getelementptr inbounds nuw %struct._archiveHandle, ptr %58, i32 0, i32 76
  %60 = load ptr, ptr %59, align 8
  %61 = getelementptr inbounds nuw %struct._tocEntry, ptr %60, i32 0, i32 2
  %62 = getelementptr inbounds nuw %struct.CatalogId, ptr %61, i32 0, i32 0
  %63 = load i32, ptr %62, align 8
  %64 = load ptr, ptr %3, align 8
  %65 = getelementptr inbounds nuw %struct._archiveHandle, ptr %64, i32 0, i32 76
  %66 = load ptr, ptr %65, align 8
  %67 = getelementptr inbounds nuw %struct._tocEntry, ptr %66, i32 0, i32 2
  %68 = getelementptr inbounds nuw %struct.CatalogId, ptr %67, i32 0, i32 1
  %69 = load i32, ptr %68, align 4
  %70 = load ptr, ptr %3, align 8
  %71 = getelementptr inbounds nuw %struct._archiveHandle, ptr %70, i32 0, i32 76
  %72 = load ptr, ptr %71, align 8
  %73 = getelementptr inbounds nuw %struct._tocEntry, ptr %72, i32 0, i32 12
  %74 = load ptr, ptr %73, align 8
  %75 = icmp ne ptr %74, null
  br i1 %75, label %76, label %82

76:                                               ; preds = %52
  %77 = load ptr, ptr %3, align 8
  %78 = getelementptr inbounds nuw %struct._archiveHandle, ptr %77, i32 0, i32 76
  %79 = load ptr, ptr %78, align 8
  %80 = getelementptr inbounds nuw %struct._tocEntry, ptr %79, i32 0, i32 12
  %81 = load ptr, ptr %80, align 8
  br label %83

82:                                               ; preds = %52
  br label %83

83:                                               ; preds = %82, %76
  %84 = phi ptr [ %81, %76 ], [ @.str.82, %82 ]
  %85 = load ptr, ptr %3, align 8
  %86 = getelementptr inbounds nuw %struct._archiveHandle, ptr %85, i32 0, i32 76
  %87 = load ptr, ptr %86, align 8
  %88 = getelementptr inbounds nuw %struct._tocEntry, ptr %87, i32 0, i32 6
  %89 = load ptr, ptr %88, align 8
  %90 = icmp ne ptr %89, null
  br i1 %90, label %91, label %97

91:                                               ; preds = %83
  %92 = load ptr, ptr %3, align 8
  %93 = getelementptr inbounds nuw %struct._archiveHandle, ptr %92, i32 0, i32 76
  %94 = load ptr, ptr %93, align 8
  %95 = getelementptr inbounds nuw %struct._tocEntry, ptr %94, i32 0, i32 6
  %96 = load ptr, ptr %95, align 8
  br label %98

97:                                               ; preds = %83
  br label %98

98:                                               ; preds = %97, %91
  %99 = phi ptr [ %96, %91 ], [ @.str.83, %97 ]
  %100 = load ptr, ptr %3, align 8
  %101 = getelementptr inbounds nuw %struct._archiveHandle, ptr %100, i32 0, i32 76
  %102 = load ptr, ptr %101, align 8
  %103 = getelementptr inbounds nuw %struct._tocEntry, ptr %102, i32 0, i32 11
  %104 = load ptr, ptr %103, align 8
  %105 = icmp ne ptr %104, null
  br i1 %105, label %106, label %112

106:                                              ; preds = %98
  %107 = load ptr, ptr %3, align 8
  %108 = getelementptr inbounds nuw %struct._archiveHandle, ptr %107, i32 0, i32 76
  %109 = load ptr, ptr %108, align 8
  %110 = getelementptr inbounds nuw %struct._tocEntry, ptr %109, i32 0, i32 11
  %111 = load ptr, ptr %110, align 8
  br label %113

112:                                              ; preds = %98
  br label %113

113:                                              ; preds = %112, %106
  %114 = phi ptr [ %111, %106 ], [ @.str.84, %112 ]
  call void (i32, i32, ptr, ...) @pg_log_generic(i32 noundef 2, i32 noundef 0, ptr noundef @.str.81, i32 noundef %57, i32 noundef %63, i32 noundef %69, ptr noundef %84, ptr noundef %99, ptr noundef %114)
  br label %115

115:                                              ; preds = %113, %44, %39
  %116 = load ptr, ptr %3, align 8
  %117 = getelementptr inbounds nuw %struct._archiveHandle, ptr %116, i32 0, i32 73
  %118 = load i32, ptr %117, align 4
  %119 = load ptr, ptr %3, align 8
  %120 = getelementptr inbounds nuw %struct._archiveHandle, ptr %119, i32 0, i32 74
  store i32 %118, ptr %120, align 8
  %121 = load ptr, ptr %3, align 8
  %122 = getelementptr inbounds nuw %struct._archiveHandle, ptr %121, i32 0, i32 76
  %123 = load ptr, ptr %122, align 8
  %124 = load ptr, ptr %3, align 8
  %125 = getelementptr inbounds nuw %struct._archiveHandle, ptr %124, i32 0, i32 77
  store ptr %123, ptr %125, align 8
  %126 = getelementptr inbounds [1 x %struct.__va_list_tag], ptr %5, i64 0, i64 0
  call void @llvm.va_start.p0(ptr %126)
  %127 = load ptr, ptr %4, align 8
  %128 = getelementptr inbounds [1 x %struct.__va_list_tag], ptr %5, i64 0, i64 0
  call void @pg_log_generic_v(i32 noundef 4, i32 noundef 0, ptr noundef %127, ptr noundef %128)
  %129 = getelementptr inbounds [1 x %struct.__va_list_tag], ptr %5, i64 0, i64 0
  call void @llvm.va_end.p0(ptr %129)
  %130 = load ptr, ptr %3, align 8
  %131 = getelementptr inbounds nuw %struct._archiveHandle, ptr %130, i32 0, i32 0
  %132 = getelementptr inbounds nuw %struct.Archive, ptr %131, i32 0, i32 14
  %133 = load i8, ptr %132, align 8, !range !4, !noundef !5
  %134 = trunc i8 %133 to i1
  br i1 %134, label %135, label %136

135:                                              ; preds = %115
  call void @exit_nicely(i32 noundef 1) #12
  unreachable

136:                                              ; preds = %115
  %137 = load ptr, ptr %3, align 8
  %138 = getelementptr inbounds nuw %struct._archiveHandle, ptr %137, i32 0, i32 0
  %139 = getelementptr inbounds nuw %struct.Archive, ptr %138, i32 0, i32 15
  %140 = load i32, ptr %139, align 4
  %141 = add i32 %140, 1
  store i32 %141, ptr %139, align 4
  br label %142

142:                                              ; preds = %136
  call void @llvm.lifetime.end.p0(i64 24, ptr %5) #11
  ret void
}