; Function Attrs: nounwind uwtable
define dso_local void @warn_or_exit_horribly(ptr noundef captures(none) %0, ptr noundef %1, ...) local_unnamed_addr #0 {
  %3 = alloca [1 x %struct.__va_list_tag], align 16
  call void @llvm.lifetime.start.p0(i64 24, ptr nonnull %3) #22
  %4 = getelementptr inbounds nuw i8, ptr %0, i64 668
  %5 = load i32, ptr %4, align 4
  switch i32 %5, label %15 [
    i32 3, label %12
    i32 1, label %6
    i32 2, label %9
  ]

6:                                                ; preds = %2
  %7 = getelementptr inbounds nuw i8, ptr %0, i64 672
  %8 = load i32, ptr %7, align 8
  %.not30 = icmp eq i32 %8, 1
  br i1 %.not30, label %15, label %.sink.split

9:                                                ; preds = %2
  %10 = getelementptr inbounds nuw i8, ptr %0, i64 672
  %11 = load i32, ptr %10, align 8
  %.not = icmp eq i32 %11, 2
  br i1 %.not, label %15, label %.sink.split

12:                                               ; preds = %2
  %13 = getelementptr inbounds nuw i8, ptr %0, i64 672
  %14 = load i32, ptr %13, align 8
  %.not31 = icmp eq i32 %14, 3
  br i1 %.not31, label %15, label %.sink.split

.sink.split:                                      ; preds = %12, %9, %6
  %.str.80.sink = phi ptr [ @.str.78, %6 ], [ @.str.79, %9 ], [ @.str.80, %12 ]
  tail call void (i32, i32, ptr, ...) @pg_log_generic(i32 noundef 2, i32 noundef 0, ptr noundef nonnull %.str.80.sink) #22
  br label %15

15:                                               ; preds = %.sink.split, %12, %9, %6, %2
  %16 = getelementptr inbounds nuw i8, ptr %0, i64 680
  %17 = load ptr, ptr %16, align 8
  %.not32 = icmp eq ptr %17, null
  br i1 %.not32, label %36, label %18

18:                                               ; preds = %15
  %19 = getelementptr inbounds nuw i8, ptr %0, i64 688
  %20 = load ptr, ptr %19, align 8
  %.not33 = icmp eq ptr %17, %20
  br i1 %.not33, label %36, label %21

21:                                               ; preds = %18
  %22 = getelementptr inbounds nuw i8, ptr %17, i64 24
  %23 = load i32, ptr %22, align 8
  %24 = getelementptr inbounds nuw i8, ptr %17, i64 16
  %25 = load i32, ptr %24, align 8
  %26 = getelementptr inbounds nuw i8, ptr %17, i64 20
  %27 = load i32, ptr %26, align 4
  %28 = getelementptr inbounds nuw i8, ptr %17, i64 88
  %29 = load ptr, ptr %28, align 8
  %.not34 = icmp eq ptr %29, null
  %spec.select = select i1 %.not34, ptr @.str.82, ptr %29
  %30 = getelementptr inbounds nuw i8, ptr %17, i64 40
  %31 = load ptr, ptr %30, align 8
  %.not35 = icmp eq ptr %31, null
  %32 = select i1 %.not35, ptr @.str.83, ptr %31
  %33 = getelementptr inbounds nuw i8, ptr %17, i64 80
  %34 = load ptr, ptr %33, align 8
  %.not36 = icmp eq ptr %34, null
  %35 = select i1 %.not36, ptr @.str.84, ptr %34
  tail call void (i32, i32, ptr, ...) @pg_log_generic(i32 noundef 2, i32 noundef 0, ptr noundef nonnull @.str.81, i32 noundef %23, i32 noundef %25, i32 noundef %27, ptr noundef nonnull %spec.select, ptr noundef nonnull %32, ptr noundef nonnull %35) #22
  %.pre = load ptr, ptr %16, align 8
  br label %36

36:                                               ; preds = %21, %18, %15
  %37 = phi ptr [ %.pre, %21 ], [ %17, %18 ], [ null, %15 ]
  %38 = load i32, ptr %4, align 4
  %39 = getelementptr inbounds nuw i8, ptr %0, i64 672
  store i32 %38, ptr %39, align 8
  %40 = getelementptr inbounds nuw i8, ptr %0, i64 688
  store ptr %37, ptr %40, align 8
  call void @llvm.va_start.p0(ptr nonnull %3)
  call void @pg_log_generic_v(i32 noundef 4, i32 noundef 0, ptr noundef %1, ptr noundef nonnull %3) #22
  call void @llvm.va_end.p0(ptr nonnull %3)
  %41 = getelementptr inbounds nuw i8, ptr %0, i64 88
  %42 = load i8, ptr %41, align 8, !range !4, !noundef !5
  %43 = trunc nuw i8 %42 to i1
  br i1 %43, label %44, label %45

44:                                               ; preds = %36
  call void @exit_nicely(i32 noundef 1) #23
  unreachable

45:                                               ; preds = %36
  %46 = getelementptr inbounds nuw i8, ptr %0, i64 92
  %47 = load i32, ptr %46, align 4
  %48 = add i32 %47, 1
  store i32 %48, ptr %46, align 4
  call void @llvm.lifetime.end.p0(i64 24, ptr nonnull %3) #22
  ret void
}